(dp1
S'OriginalConfig'
p2
ccopy_reg
_reconstructor
p3
(cWMCore.Configuration
Configuration
p4
c__builtin__
object
p5
NtRp6
(dp7
S'Site'
p8
g3
(cWMCore.Configuration
ConfigSection
p9
g5
NtRp10
(dp11
S'_internal_documentation'
p12
S''
sS'_internal_settings'
p13
c__builtin__
set
p14
((lp15
S'storageSite'
p16
atRp17
sS'_internal_name'
p18
g8
sS'_internal_docstrings'
p19
(dp20
sS'_internal_children'
p21
g14
((ltRp22
sg16
S'T2_CH_CERN'
p23
sS'_internal_parent_ref'
p24
NsbsS'_internal_sections'
p25
(lp26
S'General'
p27
aS'JobType'
p28
aS'Data'
p29
ag8
aS'User'
p30
aS'Debug'
p31
asg27
g3
(g9
g5
NtRp32
(dp33
S'transferLogs'
p34
I00
sg12
S''
sg13
g14
((lp35
g34
aS'transferOutputs'
p36
aS'workArea'
p37
aS'requestName'
p38
atRp39
sg18
g27
sg19
(dp40
sg36
I01
sg21
g14
((ltRp41
sg38
S'qcd3200'
p42
sg24
Nsg37
S'CRAB3_QCD_SPRING15_5UNITS'
p43
sbsS'_internal_webapps'
p44
(lp45
sg30
g3
(g9
g5
NtRp46
(dp47
g12
S''
sg13
g14
((ltRp48
sg18
g30
sg19
(dp49
sg21
g14
((ltRp50
sg24
NsbsS'_internal_components'
p51
(lp52
sg31
g3
(g9
g5
NtRp53
(dp54
g12
S''
sg13
g14
((ltRp55
sg18
g31
sg19
(dp56
sg21
g14
((ltRp57
sg24
Nsbsg29
g3
(g9
g5
NtRp58
(dp59
S'inputDataset'
p60
S'/QCD_Pt-3200_Tune4C_13TeV_pythia8/Spring14dr-PU20bx25_POSTLS170_V5-v1/AODSIM'
p61
sS'totalUnits'
p62
I-1
sS'splitting'
p63
S'FileBased'
p64
sS'unitsPerJob'
p65
I5
sg12
S''
sg13
g14
((lp66
g60
aS'publication'
p67
ag65
aS'inputDBS'
p68
ag63
aS'outLFNDirBase'
p69
ag62
atRp70
sg18
g29
sg68
S'global'
p71
sg19
(dp72
sg21
g14
((ltRp73
sg69
S'/store/group/phys_susy/razor/josh/RAZOR_DIJET/DJANALYSIS/SPRING15/'
p74
sg24
Nsg67
I00
sbsg28
g3
(g9
g5
NtRp75
(dp76
S'outputFiles'
p77
(lp78
S'qcd.root'
p79
asg12
S''
sg13
g14
((lp80
S'psetName'
p81
aS'pluginName'
p82
ag77
atRp83
sg18
g28
sg19
(dp84
sg82
S'Analysis'
p85
sg21
g14
((ltRp86
sg81
S'dev.py'
p87
sg24
NsbsbsS'voGroup'
p88
S''
sS'Server'
p89
S'cmsweb.cern.ch'
p90
sS'instance'
p91
S'prod'
p92
sS'RequestName'
p93
S'150610_202726:hardenbr_crab_qcd3200'
p94
sS'voRole'
p95
S'NULL'
p96
sS'Port'
p97
S''
s.